target datalayout = "e-m:e-p270:32:32-p271:32:32-p272:64:64-i64:64-i128:128-f80:128-n8:16:32:64-S128"
target triple = "x86_64-pc-linux-gnu"

%struct._zend_refcounted_h = type { i32, %union.anon.3 }
%union.anon.3 = type { i32 }
%struct._zend_string = type { %struct._zend_refcounted_h, i64, i64, [1 x i8] }

; Function Attrs: nounwind uwtable
define i32 @OnUpdateStringUnempty(ptr noundef %0, ptr noundef %1, ptr noundef %2, ptr noundef %3, ptr noundef %4, i32 noundef %5) #0 {
  %7 = alloca i32, align 4
  %8 = alloca ptr, align 8
  %9 = alloca ptr, align 8
  %10 = alloca ptr, align 8
  %11 = alloca ptr, align 8
  %12 = alloca ptr, align 8
  %13 = alloca i32, align 4
  %14 = alloca ptr, align 8
  store ptr %0, ptr %8, align 8
  store ptr %1, ptr %9, align 8
  store ptr %2, ptr %10, align 8
  store ptr %3, ptr %11, align 8
  store ptr %4, ptr %12, align 8
  store i32 %5, ptr %13, align 4
  %15 = load ptr, ptr %9, align 8
  %16 = icmp ne ptr %15, null
  br i1 %16, label %17, label %24

17:                                               ; preds = %6
  %18 = load ptr, ptr %9, align 8
  %19 = getelementptr inbounds %struct._zend_string, ptr %18, i32 0, i32 3
  %20 = getelementptr inbounds [1 x i8], ptr %19, i64 0, i64 0
  %21 = load i8, ptr %20, align 8
  %22 = icmp ne i8 %21, 0
  br i1 %22, label %24, label %23

23:                                               ; preds = %17
  store i32 -1, ptr %7, align 4
  br label %39

24:                                               ; preds = %17, %6
  %25 = load ptr, ptr %11, align 8
  %26 = load ptr, ptr %10, align 8
  %27 = ptrtoint ptr %26 to i64
  %28 = getelementptr inbounds i8, ptr %25, i64 %27
  store ptr %28, ptr %14, align 8
  %29 = load ptr, ptr %9, align 8
  %30 = icmp ne ptr %29, null
  br i1 %30, label %31, label %35

31:                                               ; preds = %24
  %32 = load ptr, ptr %9, align 8
  %33 = getelementptr inbounds %struct._zend_string, ptr %32, i32 0, i32 3
  %34 = getelementptr inbounds [1 x i8], ptr %33, i64 0, i64 0
  br label %36

35:                                               ; preds = %24
  br label %36

36:                                               ; preds = %35, %31
  %37 = phi ptr [ %34, %31 ], [ null, %35 ]
  %38 = load ptr, ptr %14, align 8
  store ptr %37, ptr %38, align 8
  store i32 0, ptr %7, align 4
  br label %39

39:                                               ; preds = %36, %23
  %40 = load i32, ptr %7, align 4
  ret i32 %40
}