; Function Attrs: mustprogress nofree norecurse nosync nounwind willreturn memory(argmem: readwrite) uwtable
define noundef i32 @OnUpdateStringUnempty(ptr nocapture noundef readnone %0, ptr noundef %1, ptr noundef %2, ptr nocapture noundef writeonly %3, ptr nocapture noundef readnone %4, i32 noundef %5) local_unnamed_addr #11 {
  %.not = icmp eq ptr %1, null
  br i1 %.not, label %10, label %7

7:                                                ; preds = %6
  %8 = getelementptr inbounds i8, ptr %1, i64 24
  %9 = load i8, ptr %8, align 8
  %.not8 = icmp eq i8 %9, 0
  br i1 %.not8, label %15, label %10

10:                                               ; preds = %7, %6
  %11 = ptrtoint ptr %2 to i64
  %12 = getelementptr inbounds i8, ptr %3, i64 %11
  %13 = getelementptr inbounds i8, ptr %1, i64 24
  %14 = select i1 %.not, ptr null, ptr %13
  store ptr %14, ptr %12, align 8
  br label %15

15:                                               ; preds = %7, %10
  %.0 = phi i32 [ 0, %10 ], [ -1, %7 ]
  ret i32 %.0
}